target datalayout = "e-m:e-p270:32:32-p271:32:32-p272:64:64-i64:64-i128:128-f80:128-n8:16:32:64-S128"
target triple = "x86_64-pc-linux-gnu"

%struct.NFAAccept = type { i8, i32, i32 }

; Function Attrs: alwaysinline nounwind uwtable
define internal i32 @_mm_popcnt_u32(i32 noundef %0) #2 {
  %2 = alloca i32, align 4
  store i32 %0, ptr %2, align 4
  %3 = load i32, ptr %2, align 4
  %4 = call i32 @llvm.ctpop.i32(i32 %3)
  ret i32 %4
}

; Function Attrs: alwaysinline nounwind uwtable
define internal i32 @limexRunReports(ptr noundef %0, ptr noundef %1, ptr noundef %2, i64 noundef %3) #2 {
  %5 = alloca i32, align 4
  %6 = alloca ptr, align 8
  %7 = alloca ptr, align 8
  %8 = alloca ptr, align 8
  %9 = alloca i64, align 8
  %10 = alloca i32, align 4
  %11 = alloca i32, align 4
  store ptr %0, ptr %6, align 8
  store ptr %1, ptr %7, align 8
  store ptr %2, ptr %8, align 8
  store i64 %3, ptr %9, align 8
  br label %12

12:                                               ; preds = %32, %4
  %13 = load ptr, ptr %6, align 8
  %14 = load i32, ptr %13, align 4
  %15 = icmp ne i32 %14, -1
  br i1 %15, label %16, label %35

16:                                               ; preds = %12
  br label %17

17:                                               ; preds = %16
  br label %18

18:                                               ; preds = %17
  call void @llvm.lifetime.start.p0(i64 4, ptr %10) #9
  %19 = load ptr, ptr %7, align 8
  %20 = load i64, ptr %9, align 8
  %21 = load ptr, ptr %6, align 8
  %22 = load i32, ptr %21, align 4
  %23 = load ptr, ptr %8, align 8
  %24 = call i32 %19(i64 noundef 0, i64 noundef %20, i32 noundef %22, ptr noundef %23)
  store i32 %24, ptr %10, align 4
  %25 = load i32, ptr %10, align 4
  %26 = icmp eq i32 %25, 0
  br i1 %26, label %27, label %28

27:                                               ; preds = %18
  store i32 0, ptr %5, align 4
  store i32 1, ptr %11, align 4
  br label %29

28:                                               ; preds = %18
  store i32 0, ptr %11, align 4
  br label %29

29:                                               ; preds = %28, %27
  call void @llvm.lifetime.end.p0(i64 4, ptr %10) #9
  %30 = load i32, ptr %11, align 4
  switch i32 %30, label %38 [
    i32 0, label %31
    i32 1, label %36
  ]

31:                                               ; preds = %29
  br label %32

32:                                               ; preds = %31
  %33 = load ptr, ptr %6, align 8
  %34 = getelementptr inbounds nuw i32, ptr %33, i32 1
  store ptr %34, ptr %6, align 8
  br label %12

35:                                               ; preds = %12
  store i32 1, ptr %5, align 4
  br label %36

36:                                               ; preds = %35, %29
  %37 = load i32, ptr %5, align 4
  ret i32 %37

38:                                               ; preds = %29
  unreachable
}

; Function Attrs: alwaysinline nounwind uwtable
define internal i32 @popcount32(i32 noundef %0) #2 {
  %2 = alloca i32, align 4
  store i32 %0, ptr %2, align 4
  %3 = load i32, ptr %2, align 4
  %4 = call i32 @_mm_popcnt_u32(i32 noundef %3)
  ret i32 %4
}

; Function Attrs: alwaysinline nounwind uwtable
define internal i32 @limexRunAccept(ptr noundef %0, ptr noundef %1, ptr noundef %2, ptr noundef %3, i64 noundef %4) #2 {
  %6 = alloca i32, align 4
  %7 = alloca ptr, align 8
  %8 = alloca ptr, align 8
  %9 = alloca ptr, align 8
  %10 = alloca ptr, align 8
  %11 = alloca i64, align 8
  %12 = alloca i32, align 4
  %13 = alloca ptr, align 8
  store ptr %0, ptr %7, align 8
  store ptr %1, ptr %8, align 8
  store ptr %2, ptr %9, align 8
  store ptr %3, ptr %10, align 8
  store i64 %4, ptr %11, align 8
  %14 = load ptr, ptr %8, align 8
  %15 = getelementptr inbounds nuw %struct.NFAAccept, ptr %14, i32 0, i32 0
  %16 = load i8, ptr %15, align 4
  %17 = icmp ne i8 %16, 0
  br i1 %17, label %18, label %30

18:                                               ; preds = %5
  call void @llvm.lifetime.start.p0(i64 4, ptr %12) #9
  %19 = load ptr, ptr %8, align 8
  %20 = getelementptr inbounds nuw %struct.NFAAccept, ptr %19, i32 0, i32 1
  %21 = load i32, ptr %20, align 4
  store i32 %21, ptr %12, align 4
  br label %22

22:                                               ; preds = %18
  br label %23

23:                                               ; preds = %22
  br label %24

24:                                               ; preds = %23
  %25 = load ptr, ptr %9, align 8
  %26 = load i64, ptr %11, align 8
  %27 = load i32, ptr %12, align 4
  %28 = load ptr, ptr %10, align 8
  %29 = call i32 %25(i64 noundef 0, i64 noundef %26, i32 noundef %27, ptr noundef %28)
  store i32 %29, ptr %6, align 4
  call void @llvm.lifetime.end.p0(i64 4, ptr %12) #9
  br label %42

30:                                               ; preds = %5
  call void @llvm.lifetime.start.p0(i64 8, ptr %13) #9
  %31 = load ptr, ptr %7, align 8
  %32 = load ptr, ptr %8, align 8
  %33 = getelementptr inbounds nuw %struct.NFAAccept, ptr %32, i32 0, i32 1
  %34 = load i32, ptr %33, align 4
  %35 = zext i32 %34 to i64
  %36 = getelementptr inbounds nuw i8, ptr %31, i64 %35
  store ptr %36, ptr %13, align 8
  %37 = load ptr, ptr %13, align 8
  %38 = load ptr, ptr %9, align 8
  %39 = load ptr, ptr %10, align 8
  %40 = load i64, ptr %11, align 8
  %41 = call i32 @limexRunReports(ptr noundef %37, ptr noundef %38, ptr noundef %39, i64 noundef %40)
  store i32 %41, ptr %6, align 4
  call void @llvm.lifetime.end.p0(i64 8, ptr %13) #9
  br label %42

42:                                               ; preds = %30, %24
  %43 = load i32, ptr %6, align 4
  ret i32 %43
}

; Function Attrs: alwaysinline nounwind uwtable
define internal i32 @rank_in_mask32(i32 noundef %0, i32 noundef %1) #2 {
  %3 = alloca i32, align 4
  %4 = alloca i32, align 4
  store i32 %0, ptr %3, align 4
  store i32 %1, ptr %4, align 4
  %5 = load i32, ptr %4, align 4
  %6 = shl i32 1, %5
  %7 = sub i32 %6, 1
  %8 = load i32, ptr %3, align 4
  %9 = and i32 %8, %7
  store i32 %9, ptr %3, align 4
  %10 = load i32, ptr %3, align 4
  %11 = call i32 @popcount32(i32 noundef %10)
  ret i32 %11
}

; Function Attrs: alwaysinline nounwind uwtable
define internal i32 @findAndClearLSB_32(ptr noundef %0) #2 {
  %2 = alloca ptr, align 8
  %3 = alloca i32, align 4
  %4 = alloca i32, align 4
  store ptr %0, ptr %2, align 8
  call void @llvm.lifetime.start.p0(i64 4, ptr %3) #9
  %5 = load ptr, ptr %2, align 8
  %6 = load i32, ptr %5, align 4
  store i32 %6, ptr %3, align 4
  call void @llvm.lifetime.start.p0(i64 4, ptr %4) #9
  %7 = load i32, ptr %3, align 4
  %8 = call { i32, i32 } asm "bsf $1, $0\0Abtr $0, $1\0A", "=r,=r,1,~{dirflag},~{fpsr},~{flags}"(i32 %7) #10, !srcloc !5
  %9 = extractvalue { i32, i32 } %8, 0
  %10 = extractvalue { i32, i32 } %8, 1
  store i32 %9, ptr %4, align 4
  store i32 %10, ptr %3, align 4
  %11 = load i32, ptr %3, align 4
  %12 = load ptr, ptr %2, align 8
  store i32 %11, ptr %12, align 4
  %13 = load i32, ptr %4, align 4
  call void @llvm.lifetime.end.p0(i64 4, ptr %4) #9
  call void @llvm.lifetime.end.p0(i64 4, ptr %3) #9
  ret i32 %13
}

; Function Attrs: alwaysinline nounwind uwtable
define internal signext i8 @moProcessAcceptsImpl32(ptr noundef %0, ptr noundef %1, ptr noundef %2, ptr noundef %3, ptr noundef %4, i64 noundef %5, ptr noundef %6, ptr noundef %7) #2 {
  %9 = alloca i8, align 1
  %10 = alloca ptr, align 8
  %11 = alloca ptr, align 8
  %12 = alloca ptr, align 8
  %13 = alloca ptr, align 8
  %14 = alloca ptr, align 8
  %15 = alloca i64, align 8
  %16 = alloca ptr, align 8
  %17 = alloca ptr, align 8
  %18 = alloca i32, align 4
  %19 = alloca i32, align 4
  %20 = alloca [1 x i32], align 4
  %21 = alloca [1 x i32], align 4
  %22 = alloca i32, align 4
  %23 = alloca i32, align 4
  %24 = alloca i32, align 4
  %25 = alloca i32, align 4
  %26 = alloca i32, align 4
  %27 = alloca i32, align 4
  %28 = alloca i32, align 4
  %29 = alloca ptr, align 8
  %30 = alloca i32, align 4
  %31 = alloca ptr, align 8
  store ptr %0, ptr %10, align 8
  store ptr %1, ptr %11, align 8
  store ptr %2, ptr %12, align 8
  store ptr %3, ptr %13, align 8
  store ptr %4, ptr %14, align 8
  store i64 %5, ptr %15, align 8
  store ptr %6, ptr %16, align 8
  store ptr %7, ptr %17, align 8
  call void @llvm.lifetime.start.p0(i64 4, ptr %18) #9
  %32 = load ptr, ptr %13, align 8
  %33 = load i32, ptr %32, align 4
  store i32 %33, ptr %18, align 4
  call void @llvm.lifetime.start.p0(i64 4, ptr %19) #9
  %34 = load ptr, ptr %11, align 8
  %35 = load i32, ptr %34, align 4
  %36 = load i32, ptr %18, align 4
  %37 = and i32 %35, %36
  store i32 %37, ptr %19, align 4
  call void @llvm.lifetime.start.p0(i64 4, ptr %20) #9
  %38 = getelementptr inbounds [1 x i32], ptr %20, i64 0, i64 0
  call void @llvm.memcpy.p0.p0.i64(ptr align 4 %38, ptr align 4 %19, i64 4, i1 false)
  call void @llvm.lifetime.start.p0(i64 4, ptr %21) #9
  %39 = getelementptr inbounds [1 x i32], ptr %21, i64 0, i64 0
  call void @llvm.memcpy.p0.p0.i64(ptr align 4 %39, ptr align 4 %18, i64 4, i1 false)
  call void @llvm.lifetime.start.p0(i64 4, ptr %22) #9
  store i32 0, ptr %22, align 4
  call void @llvm.lifetime.start.p0(i64 4, ptr %23) #9
  store i32 0, ptr %23, align 4
  br label %40

40:                                               ; preds = %125, %8
  %41 = load i32, ptr %23, align 4
  %42 = zext i32 %41 to i64
  %43 = icmp ult i64 %42, 1
  br i1 %43, label %45, label %44

44:                                               ; preds = %40
  store i32 2, ptr %24, align 4
  br label %128

45:                                               ; preds = %40
  call void @llvm.lifetime.start.p0(i64 4, ptr %25) #9
  %46 = load i32, ptr %23, align 4
  %47 = zext i32 %46 to i64
  %48 = getelementptr inbounds nuw [1 x i32], ptr %20, i64 0, i64 %47
  %49 = load i32, ptr %48, align 4
  store i32 %49, ptr %25, align 4
  br label %50

50:                                               ; preds = %113, %45
  %51 = load i32, ptr %25, align 4
  %52 = icmp ne i32 %51, 0
  br i1 %52, label %53, label %114

53:                                               ; preds = %50
  call void @llvm.lifetime.start.p0(i64 4, ptr %26) #9
  %54 = call i32 @findAndClearLSB_32(ptr noundef %25)
  store i32 %54, ptr %26, align 4
  call void @llvm.lifetime.start.p0(i64 4, ptr %27) #9
  %55 = load i32, ptr %23, align 4
  %56 = zext i32 %55 to i64
  %57 = getelementptr inbounds nuw [1 x i32], ptr %21, i64 0, i64 %56
  %58 = load i32, ptr %57, align 4
  %59 = load i32, ptr %26, align 4
  %60 = call i32 @rank_in_mask32(i32 noundef %58, i32 noundef %59)
  store i32 %60, ptr %27, align 4
  call void @llvm.lifetime.start.p0(i64 4, ptr %28) #9
  %61 = load i32, ptr %27, align 4
  %62 = load i32, ptr %22, align 4
  %63 = add i32 %61, %62
  store i32 %63, ptr %28, align 4
  call void @llvm.lifetime.start.p0(i64 8, ptr %29) #9
  %64 = load ptr, ptr %14, align 8
  %65 = load i32, ptr %28, align 4
  %66 = zext i32 %65 to i64
  %67 = getelementptr inbounds nuw %struct.NFAAccept, ptr %64, i64 %66
  store ptr %67, ptr %29, align 8
  br label %68

68:                                               ; preds = %53
  br label %69

69:                                               ; preds = %68
  br label %70

70:                                               ; preds = %69
  call void @llvm.lifetime.start.p0(i64 4, ptr %30) #9
  %71 = load ptr, ptr %10, align 8
  %72 = load ptr, ptr %29, align 8
  %73 = load ptr, ptr %16, align 8
  %74 = load ptr, ptr %17, align 8
  %75 = load i64, ptr %15, align 8
  %76 = call i32 @limexRunAccept(ptr noundef %71, ptr noundef %72, ptr noundef %73, ptr noundef %74, i64 noundef %75)
  store i32 %76, ptr %30, align 4
  %77 = load i32, ptr %30, align 4
  %78 = icmp eq i32 %77, 0
  %79 = xor i1 %78, true
  %80 = xor i1 %79, true
  %81 = zext i1 %80 to i32
  %82 = sext i32 %81 to i64
  %83 = call i64 @llvm.expect.i64(i64 %82, i64 0)
  %84 = icmp ne i64 %83, 0
  br i1 %84, label %85, label %86

85:                                               ; preds = %70
  store i8 1, ptr %9, align 1
  store i32 1, ptr %24, align 4
  br label %111

86:                                               ; preds = %70
  %87 = load ptr, ptr %12, align 8
  %88 = icmp ne ptr %87, null
  br i1 %88, label %89, label %110

89:                                               ; preds = %86
  %90 = load ptr, ptr %29, align 8
  %91 = getelementptr inbounds nuw %struct.NFAAccept, ptr %90, i32 0, i32 2
  %92 = load i32, ptr %91, align 4
  %93 = icmp ne i32 %92, -1
  br i1 %93, label %94, label %110

94:                                               ; preds = %89
  br label %95

95:                                               ; preds = %94
  br label %96

96:                                               ; preds = %95
  br label %97

97:                                               ; preds = %96
  call void @llvm.lifetime.start.p0(i64 8, ptr %31) #9
  %98 = load ptr, ptr %10, align 8
  %99 = load ptr, ptr %29, align 8
  %100 = getelementptr inbounds nuw %struct.NFAAccept, ptr %99, i32 0, i32 2
  %101 = load i32, ptr %100, align 4
  %102 = zext i32 %101 to i64
  %103 = getelementptr inbounds nuw i8, ptr %98, i64 %102
  store ptr %103, ptr %31, align 8
  %104 = load ptr, ptr %12, align 8
  %105 = load i32, ptr %104, align 4
  %106 = load ptr, ptr %31, align 8
  %107 = load i32, ptr %106, align 4
  %108 = and i32 %105, %107
  %109 = load ptr, ptr %12, align 8
  store i32 %108, ptr %109, align 4
  call void @llvm.lifetime.end.p0(i64 8, ptr %31) #9
  br label %110

110:                                              ; preds = %97, %89, %86
  store i32 0, ptr %24, align 4
  br label %111

111:                                              ; preds = %110, %85
  call void @llvm.lifetime.end.p0(i64 4, ptr %30) #9
  call void @llvm.lifetime.end.p0(i64 8, ptr %29) #9
  call void @llvm.lifetime.end.p0(i64 4, ptr %28) #9
  call void @llvm.lifetime.end.p0(i64 4, ptr %27) #9
  call void @llvm.lifetime.end.p0(i64 4, ptr %26) #9
  %112 = load i32, ptr %24, align 4
  switch i32 %112, label %122 [
    i32 0, label %113
  ]

113:                                              ; preds = %111
  br label %50

114:                                              ; preds = %50
  %115 = load i32, ptr %23, align 4
  %116 = zext i32 %115 to i64
  %117 = getelementptr inbounds nuw [1 x i32], ptr %21, i64 0, i64 %116
  %118 = load i32, ptr %117, align 4
  %119 = call i32 @popcount32(i32 noundef %118)
  %120 = load i32, ptr %22, align 4
  %121 = add i32 %120, %119
  store i32 %121, ptr %22, align 4
  store i32 0, ptr %24, align 4
  br label %122

122:                                              ; preds = %114, %111
  call void @llvm.lifetime.end.p0(i64 4, ptr %25) #9
  %123 = load i32, ptr %24, align 4
  switch i32 %123, label %128 [
    i32 0, label %124
  ]

124:                                              ; preds = %122
  br label %125

125:                                              ; preds = %124
  %126 = load i32, ptr %23, align 4
  %127 = add i32 %126, 1
  store i32 %127, ptr %23, align 4
  br label %40

128:                                              ; preds = %122, %44
  call void @llvm.lifetime.end.p0(i64 4, ptr %23) #9
  %129 = load i32, ptr %24, align 4
  switch i32 %129, label %131 [
    i32 2, label %130
  ]

130:                                              ; preds = %128
  store i8 0, ptr %9, align 1
  store i32 1, ptr %24, align 4
  br label %131

131:                                              ; preds = %130, %128
  call void @llvm.lifetime.end.p0(i64 4, ptr %22) #9
  call void @llvm.lifetime.end.p0(i64 4, ptr %21) #9
  call void @llvm.lifetime.end.p0(i64 4, ptr %20) #9
  call void @llvm.lifetime.end.p0(i64 4, ptr %19) #9
  call void @llvm.lifetime.end.p0(i64 4, ptr %18) #9
  %132 = load i8, ptr %9, align 1
  ret i8 %132
}

; Function Attrs: noinline nounwind uwtable
define internal signext i8 @moProcessAccepts32(ptr noundef %0, ptr noundef %1, ptr noundef %2, ptr noundef %3, i64 noundef %4, ptr noundef %5, ptr noundef %6) #4 {
  %8 = alloca ptr, align 8
  %9 = alloca ptr, align 8
  %10 = alloca ptr, align 8
  %11 = alloca ptr, align 8
  %12 = alloca i64, align 8
  %13 = alloca ptr, align 8
  %14 = alloca ptr, align 8
  %15 = alloca i32, align 4
  store ptr %0, ptr %8, align 8
  store ptr %1, ptr %9, align 8
  store ptr %2, ptr %10, align 8
  store ptr %3, ptr %11, align 8
  store i64 %4, ptr %12, align 8
  store ptr %5, ptr %13, align 8
  store ptr %6, ptr %14, align 8
  call void @llvm.lifetime.start.p0(i64 4, ptr %15) #9
  store i32 -1, ptr %15, align 4
  %16 = load ptr, ptr %8, align 8
  %17 = load ptr, ptr %9, align 8
  %18 = load ptr, ptr %10, align 8
  %19 = load ptr, ptr %11, align 8
  %20 = load i64, ptr %12, align 8
  %21 = load ptr, ptr %13, align 8
  %22 = load ptr, ptr %14, align 8
  %23 = call signext i8 @moProcessAcceptsImpl32(ptr noundef %16, ptr noundef %17, ptr noundef %15, ptr noundef %18, ptr noundef %19, i64 noundef %20, ptr noundef %21, ptr noundef %22)
  call void @llvm.lifetime.end.p0(i64 4, ptr %15) #9
  ret i8 %23
}